target datalayout = "e-m:e-p270:32:32-p271:32:32-p272:64:64-i64:64-i128:128-f80:128-n8:16:32:64-S128"
target triple = "x86_64-pc-linux-gnu"

; Function Attrs: inlinehint mustprogress nounwind uwtable
define linkonce_odr noundef signext i8 @_ZN6icu_775Grego10isLeapYearEi(i32 noundef %0) #4 comdat align 2 {
  %2 = alloca i32, align 4
  store i32 %0, ptr %2, align 4, !tbaa !17
  %3 = load i32, ptr %2, align 4, !tbaa !17
  %4 = and i32 %3, 3
  %5 = icmp eq i32 %4, 0
  br i1 %5, label %6, label %16

6:                                                ; preds = %1
  %7 = load i32, ptr %2, align 4, !tbaa !17
  %8 = srem i32 %7, 100
  %9 = icmp ne i32 %8, 0
  br i1 %9, label %14, label %10

10:                                               ; preds = %6
  %11 = load i32, ptr %2, align 4, !tbaa !17
  %12 = srem i32 %11, 400
  %13 = icmp eq i32 %12, 0
  br label %14

14:                                               ; preds = %10, %6
  %15 = phi i1 [ true, %6 ], [ %13, %10 ]
  br label %16

16:                                               ; preds = %14, %1
  %17 = phi i1 [ false, %1 ], [ %15, %14 ]
  %18 = zext i1 %17 to i8
  ret i8 %18
}

; Function Attrs: mustprogress uwtable
define internal noundef double @_ZN6icu_77L13gregorianToJDEiii(i32 noundef %0, i32 noundef %1, i32 noundef %2) #0 {
  %4 = alloca i32, align 4
  %5 = alloca i32, align 4
  %6 = alloca i32, align 4
  store i32 %0, ptr %4, align 4, !tbaa !17
  store i32 %1, ptr %5, align 4, !tbaa !17
  store i32 %2, ptr %6, align 4, !tbaa !17
  %7 = load i32, ptr %4, align 4, !tbaa !17
  %8 = load i32, ptr %5, align 4, !tbaa !17
  %9 = load i32, ptr %6, align 4, !tbaa !17
  %10 = call noundef i64 @_ZN6icu_775Grego11fieldsToDayEiii(i32 noundef %7, i32 noundef %8, i32 noundef %9)
  %11 = add nsw i64 %10, 2440588
  %12 = sitofp i64 %11 to double
  %13 = fsub double %12, 5.000000e-01
  ret double %13
}

; Function Attrs: mustprogress uwtable
define internal noundef signext i8 @_ZN6icu_77L15isGregorianLeapEi(i32 noundef %0) #0 {
  %2 = alloca i32, align 4
  store i32 %0, ptr %2, align 4, !tbaa !17
  %3 = load i32, ptr %2, align 4, !tbaa !17
  %4 = call noundef signext i8 @_ZN6icu_775Grego10isLeapYearEi(i32 noundef %3)
  ret i8 %4
}

; Function Attrs: mustprogress uwtable
define internal noundef double @_ZN6icu_77L10IndianToJDEiii(i32 noundef %0, i32 noundef %1, i32 noundef %2) #0 {
  %4 = alloca i32, align 4
  %5 = alloca i32, align 4
  %6 = alloca i32, align 4
  %7 = alloca i32, align 4
  %8 = alloca i32, align 4
  %9 = alloca i32, align 4
  %10 = alloca double, align 8
  %11 = alloca double, align 8
  store i32 %0, ptr %4, align 4, !tbaa !17
  store i32 %1, ptr %5, align 4, !tbaa !17
  store i32 %2, ptr %6, align 4, !tbaa !17
  call void @llvm.lifetime.start.p0(i64 4, ptr %7) #9
  call void @llvm.lifetime.start.p0(i64 4, ptr %8) #9
  call void @llvm.lifetime.start.p0(i64 4, ptr %9) #9
  call void @llvm.lifetime.start.p0(i64 8, ptr %10) #9
  call void @llvm.lifetime.start.p0(i64 8, ptr %11) #9
  %12 = load i32, ptr %4, align 4, !tbaa !17
  %13 = add nsw i32 %12, 78
  store i32 %13, ptr %8, align 4, !tbaa !17
  %14 = load i32, ptr %8, align 4, !tbaa !17
  %15 = call noundef signext i8 @_ZN6icu_77L15isGregorianLeapEi(i32 noundef %14)
  %16 = icmp ne i8 %15, 0
  br i1 %16, label %17, label %20

17:                                               ; preds = %3
  store i32 31, ptr %7, align 4, !tbaa !17
  %18 = load i32, ptr %8, align 4, !tbaa !17
  %19 = call noundef double @_ZN6icu_77L13gregorianToJDEiii(i32 noundef %18, i32 noundef 2, i32 noundef 21)
  store double %19, ptr %10, align 8, !tbaa !24
  br label %23

20:                                               ; preds = %3
  store i32 30, ptr %7, align 4, !tbaa !17
  %21 = load i32, ptr %8, align 4, !tbaa !17
  %22 = call noundef double @_ZN6icu_77L13gregorianToJDEiii(i32 noundef %21, i32 noundef 2, i32 noundef 22)
  store double %22, ptr %10, align 8, !tbaa !24
  br label %23

23:                                               ; preds = %20, %17
  %24 = load i32, ptr %5, align 4, !tbaa !17
  %25 = icmp eq i32 %24, 1
  br i1 %25, label %26, label %32

26:                                               ; preds = %23
  %27 = load double, ptr %10, align 8, !tbaa !24
  %28 = load i32, ptr %6, align 4, !tbaa !17
  %29 = sub nsw i32 %28, 1
  %30 = sitofp i32 %29 to double
  %31 = fadd double %27, %30
  store double %31, ptr %11, align 8, !tbaa !24
  br label %64

32:                                               ; preds = %23
  %33 = load double, ptr %10, align 8, !tbaa !24
  %34 = load i32, ptr %7, align 4, !tbaa !17
  %35 = sitofp i32 %34 to double
  %36 = fadd double %33, %35
  store double %36, ptr %11, align 8, !tbaa !24
  %37 = load i32, ptr %5, align 4, !tbaa !17
  %38 = sub nsw i32 %37, 2
  store i32 %38, ptr %9, align 4, !tbaa !17
  %39 = load i32, ptr %9, align 4, !tbaa !17
  %40 = icmp sgt i32 %39, 5
  br i1 %40, label %41, label %42

41:                                               ; preds = %32
  store i32 5, ptr %9, align 4, !tbaa !17
  br label %42

42:                                               ; preds = %41, %32
  %43 = load i32, ptr %9, align 4, !tbaa !17
  %44 = mul nsw i32 %43, 31
  %45 = sitofp i32 %44 to double
  %46 = load double, ptr %11, align 8, !tbaa !24
  %47 = fadd double %46, %45
  store double %47, ptr %11, align 8, !tbaa !24
  %48 = load i32, ptr %5, align 4, !tbaa !17
  %49 = icmp sge i32 %48, 8
  br i1 %49, label %50, label %58

50:                                               ; preds = %42
  %51 = load i32, ptr %5, align 4, !tbaa !17
  %52 = sub nsw i32 %51, 7
  store i32 %52, ptr %9, align 4, !tbaa !17
  %53 = load i32, ptr %9, align 4, !tbaa !17
  %54 = mul nsw i32 %53, 30
  %55 = sitofp i32 %54 to double
  %56 = load double, ptr %11, align 8, !tbaa !24
  %57 = fadd double %56, %55
  store double %57, ptr %11, align 8, !tbaa !24
  br label %58

58:                                               ; preds = %50, %42
  %59 = load i32, ptr %6, align 4, !tbaa !17
  %60 = sub nsw i32 %59, 1
  %61 = sitofp i32 %60 to double
  %62 = load double, ptr %11, align 8, !tbaa !24
  %63 = fadd double %62, %61
  store double %63, ptr %11, align 8, !tbaa !24
  br label %64

64:                                               ; preds = %58, %26
  %65 = load double, ptr %11, align 8, !tbaa !24
  call void @llvm.lifetime.end.p0(i64 8, ptr %11) #9
  call void @llvm.lifetime.end.p0(i64 8, ptr %10) #9
  call void @llvm.lifetime.end.p0(i64 4, ptr %9) #9
  call void @llvm.lifetime.end.p0(i64 4, ptr %8) #9
  call void @llvm.lifetime.end.p0(i64 4, ptr %7) #9
  ret double %65
}

; Function Attrs: inlinehint mustprogress nounwind uwtable
define internal noundef signext i8 @_ZL9U_FAILURE10UErrorCode(i32 noundef %0) #4 {
  %2 = alloca i32, align 4
  store i32 %0, ptr %2, align 4, !tbaa !19
  %3 = load i32, ptr %2, align 4, !tbaa !19
  %4 = icmp sgt i32 %3, 0
  %5 = zext i1 %4 to i8
  ret i8 %5
}

; Function Attrs: mustprogress uwtable
define noundef i64 @_ZNK6icu_7714IndianCalendar23handleComputeMonthStartEiiaR10UErrorCode(ptr noundef nonnull align 8 dereferenceable(192) %0, i32 noundef %1, i32 noundef %2, i8 noundef signext %3, ptr noundef nonnull align 4 dereferenceable(4) %4) unnamed_addr #0 align 2 {
  %6 = alloca i64, align 8
  %7 = alloca ptr, align 8
  %8 = alloca i32, align 4
  %9 = alloca i32, align 4
  %10 = alloca i8, align 1
  %11 = alloca ptr, align 8
  %12 = alloca i32, align 4
  %13 = alloca i32, align 4
  %14 = alloca i64, align 8
  store ptr %0, ptr %7, align 8, !tbaa !3
  store i32 %1, ptr %8, align 4, !tbaa !17
  store i32 %2, ptr %9, align 4, !tbaa !17
  store i8 %3, ptr %10, align 1, !tbaa !21
  store ptr %4, ptr %11, align 8, !tbaa !10
  %15 = load ptr, ptr %11, align 8, !tbaa !10
  %16 = load i32, ptr %15, align 4, !tbaa !19
  %17 = call noundef signext i8 @_ZL9U_FAILURE10UErrorCode(i32 noundef %16)
  %18 = icmp ne i8 %17, 0
  br i1 %18, label %19, label %20

19:                                               ; preds = %5
  store i64 0, ptr %6, align 8
  br label %49

20:                                               ; preds = %5
  call void @llvm.lifetime.start.p0(i64 4, ptr %12) #9
  %21 = load i32, ptr %9, align 4, !tbaa !17
  %22 = icmp slt i32 %21, 0
  br i1 %22, label %26, label %23

23:                                               ; preds = %20
  %24 = load i32, ptr %9, align 4, !tbaa !17
  %25 = icmp sgt i32 %24, 11
  br i1 %25, label %26, label %35

26:                                               ; preds = %23, %20
  %27 = load i32, ptr %8, align 4, !tbaa !17
  %28 = load i32, ptr %9, align 4, !tbaa !17
  %29 = call noundef i32 @_ZN6icu_779ClockMath11floorDivideEiiPi(i32 noundef %28, i32 noundef 12, ptr noundef %9)
  %30 = call signext i8 @uprv_add32_overflow_77(i32 noundef %27, i32 noundef %29, ptr noundef %8)
  %31 = icmp ne i8 %30, 0
  br i1 %31, label %32, label %34

32:                                               ; preds = %26
  %33 = load ptr, ptr %11, align 8, !tbaa !10
  store i32 1, ptr %33, align 4, !tbaa !19
  store i64 0, ptr %6, align 8
  store i32 1, ptr %13, align 4
  br label %48

34:                                               ; preds = %26
  br label %35

35:                                               ; preds = %34, %23
  %36 = load i32, ptr %9, align 4, !tbaa !17
  %37 = icmp eq i32 %36, 12
  br i1 %37, label %38, label %39

38:                                               ; preds = %35
  store i32 1, ptr %12, align 4, !tbaa !17
  br label %42

39:                                               ; preds = %35
  %40 = load i32, ptr %9, align 4, !tbaa !17
  %41 = add nsw i32 %40, 1
  store i32 %41, ptr %12, align 4, !tbaa !17
  br label %42

42:                                               ; preds = %39, %38
  call void @llvm.lifetime.start.p0(i64 8, ptr %14) #9
  %43 = load i32, ptr %8, align 4, !tbaa !17
  %44 = load i32, ptr %12, align 4, !tbaa !17
  %45 = call noundef double @_ZN6icu_77L10IndianToJDEiii(i32 noundef %43, i32 noundef %44, i32 noundef 1)
  %46 = fptosi double %45 to i64
  store i64 %46, ptr %14, align 8, !tbaa !22
  %47 = load i64, ptr %14, align 8, !tbaa !22
  store i64 %47, ptr %6, align 8
  store i32 1, ptr %13, align 4
  call void @llvm.lifetime.end.p0(i64 8, ptr %14) #9
  br label %48

48:                                               ; preds = %42, %32
  call void @llvm.lifetime.end.p0(i64 4, ptr %12) #9
  br label %49

49:                                               ; preds = %48, %19
  %50 = load i64, ptr %6, align 8
  ret i64 %50
}