; Function Attrs: mustprogress uwtable
define noundef i64 @_ZNK6icu_7714IndianCalendar23handleComputeMonthStartEiiaR10UErrorCode(ptr nonnull readnone align 8 captures(none) %0, i32 noundef %1, i32 noundef %2, i8 signext %3, ptr noundef nonnull align 4 captures(none) dereferenceable(4) %4) unnamed_addr #0 align 2 {
  %6 = alloca i32, align 4
  %7 = alloca i32, align 4
  store i32 %1, ptr %6, align 4, !tbaa !6
  store i32 %2, ptr %7, align 4, !tbaa !6
  %8 = load i32, ptr %4, align 4, !tbaa !9
  %9 = icmp slt i32 %8, 1
  br i1 %9, label %10, label %41

10:                                               ; preds = %5
  %or.cond = icmp ugt i32 %2, 11
  br i1 %or.cond, label %11, label %15

11:                                               ; preds = %10
  %12 = call noundef i32 @_ZN6icu_779ClockMath11floorDivideEiiPi(i32 noundef %2, i32 noundef 12, ptr noundef nonnull %7)
  %13 = call signext i8 @uprv_add32_overflow_77(i32 noundef %1, i32 noundef %12, ptr noundef nonnull %6)
  %.not7 = icmp eq i8 %13, 0
  br i1 %.not7, label %._crit_edge, label %14

._crit_edge:                                      ; preds = %11
  %.pre = load i32, ptr %7, align 4, !tbaa !6
  %.pre8 = load i32, ptr %6, align 4, !tbaa !6
  br label %15

14:                                               ; preds = %11
  store i32 1, ptr %4, align 4, !tbaa !9
  br label %41

15:                                               ; preds = %._crit_edge, %10
  %16 = phi i32 [ %.pre8, %._crit_edge ], [ %1, %10 ]
  %17 = phi i32 [ %.pre, %._crit_edge ], [ %2, %10 ]
  %18 = icmp eq i32 %17, 12
  %19 = add nsw i32 %17, 1
  %.05 = select i1 %18, i32 1, i32 %19
  %20 = add nsw i32 %16, 78
  %21 = and i32 %20, 3
  %22 = icmp eq i32 %21, 0
  br i1 %22, label %23, label %_ZN6icu_77L15isGregorianLeapEi.exit.thread.i

23:                                               ; preds = %15
  %24 = srem i32 %20, 100
  %.not.i.i.i = icmp ne i32 %24, 0
  %25 = srem i32 %20, 400
  %.not.i = icmp eq i32 %25, 0
  %or.cond.i = or i1 %.not.i.i.i, %.not.i
  br i1 %or.cond.i, label %_ZN6icu_77L15isGregorianLeapEi.exit.thread23.i, label %_ZN6icu_77L15isGregorianLeapEi.exit.thread.i

_ZN6icu_77L15isGregorianLeapEi.exit.thread.i:     ; preds = %23, %15
  br label %_ZN6icu_77L15isGregorianLeapEi.exit.thread23.i

_ZN6icu_77L15isGregorianLeapEi.exit.thread23.i:   ; preds = %_ZN6icu_77L15isGregorianLeapEi.exit.thread.i, %23
  %.sink.i = phi i32 [ 22, %_ZN6icu_77L15isGregorianLeapEi.exit.thread.i ], [ 21, %23 ]
  %.020.i = phi double [ 3.000000e+01, %_ZN6icu_77L15isGregorianLeapEi.exit.thread.i ], [ 3.100000e+01, %23 ]
  %26 = call noundef i64 @_ZN6icu_775Grego11fieldsToDayEiii(i32 noundef %20, i32 noundef 2, i32 noundef %.sink.i)
  %.019.in.in.i = add nsw i64 %26, 2440588
  %.019.in.i = sitofp i64 %.019.in.in.i to double
  %.019.i = fadd double %.019.in.i, -5.000000e-01
  %27 = icmp eq i32 %.05, 1
  br i1 %27, label %_ZN6icu_77L10IndianToJDEiii.exit, label %28

28:                                               ; preds = %_ZN6icu_77L15isGregorianLeapEi.exit.thread23.i
  %29 = fadd double %.020.i, %.019.i
  %30 = call i32 @llvm.smin.i32(i32 range(i32 -2147483647, -2147483648) %.05, i32 7)
  %31 = mul i32 %30, 31
  %32 = add i32 %31, -62
  %33 = sitofp i32 %32 to double
  %34 = fadd double %29, %33
  %35 = icmp sgt i32 %.05, 7
  %36 = mul i32 %.05, 30
  %37 = add i32 %36, -210
  %38 = uitofp nneg i32 %37 to double
  %39 = select i1 %35, double %38, double -0.000000e+00
  %.1.i = fadd double %39, %34
  br label %_ZN6icu_77L10IndianToJDEiii.exit

_ZN6icu_77L10IndianToJDEiii.exit:                 ; preds = %_ZN6icu_77L15isGregorianLeapEi.exit.thread23.i, %28
  %.0.i = phi double [ %.1.i, %28 ], [ %.019.i, %_ZN6icu_77L15isGregorianLeapEi.exit.thread23.i ]
  %40 = fptosi double %.0.i to i64
  br label %41

41:                                               ; preds = %14, %_ZN6icu_77L10IndianToJDEiii.exit, %5
  %.0 = phi i64 [ 0, %5 ], [ 0, %14 ], [ %40, %_ZN6icu_77L10IndianToJDEiii.exit ]
  ret i64 %.0
}